target datalayout = "e-m:e-p270:32:32-p271:32:32-p272:64:64-i64:64-i128:128-f80:128-n8:16:32:64-S128"
target triple = "x86_64-pc-linux-gnu"

%struct.pmix_object_t = type { %union.pthread_mutex_t, ptr, i32, %struct.pmix_tma }
%struct.pmix_tma = type { ptr, ptr, ptr, ptr, ptr, ptr, ptr, ptr }
%union.pthread_mutex_t = type { %struct.__pthread_mutex_s }
%struct.__pthread_mutex_s = type { i32, i32, i32, i32, i32, i16, i16, %struct.__pthread_internal_list }
%struct.__pthread_internal_list = type { ptr, ptr }
%struct.pmix_proc = type { [256 x i8], i32 }
%struct.timeval = type { i64, i64 }
%struct.event = type { %struct.event_callback, %union.anon.2, i32, ptr, %union.anon.4, i16, i16, %struct.timeval }
%struct.event_callback = type { %struct.anon.0, i16, i8, i8, %union.anon.1, ptr }
%struct.anon.0 = type { ptr, ptr }
%union.anon.1 = type { ptr }
%union.anon.2 = type { %struct.anon.3 }
%struct.anon.3 = type { ptr, ptr }
%union.anon.4 = type { %struct.anon.5 }
%struct.anon.5 = type { %struct.anon.6, %struct.timeval }
%struct.anon.6 = type { ptr, ptr }
%struct.pmix_iof_read_event_t = type { %struct.pmix_object_t, %struct.event, %struct.timeval, i32, i8, ptr, i8, %struct.pmix_proc, i16, ptr, i64, ptr, i64 }

@.str.1 = private unnamed_addr constant [37 x i8] c"PMIX ERROR: %s in file %s at line %d\00", align 1
@.str.2 = private unnamed_addr constant [18 x i8] c"common/pmix_iof.c\00", align 1

; Function Attrs: inlinehint nounwind uwtable
define internal void @pmix_atomic_wmb() #2 {
  fence release
  ret void
}

; Function Attrs: nounwind uwtable
define zeroext i1 @pmix_iof_stdin_check(i32 noundef %0) #0 {
  %2 = alloca i1, align 1
  %3 = alloca i32, align 4
  store i32 %0, ptr %3, align 4, !tbaa !81
  %4 = load i32, ptr %3, align 4, !tbaa !81
  %5 = call i32 @isatty(i32 noundef %4) #13
  %6 = icmp ne i32 %5, 0
  br i1 %6, label %7, label %13

7:                                                ; preds = %1
  %8 = call i32 @getpgrp() #13
  %9 = load i32, ptr %3, align 4, !tbaa !81
  %10 = call i32 @tcgetpgrp(i32 noundef %9) #13
  %11 = icmp ne i32 %8, %10
  br i1 %11, label %12, label %13

12:                                               ; preds = %7
  store i1 false, ptr %2, align 1
  br label %14

13:                                               ; preds = %7, %1
  store i1 true, ptr %2, align 1
  br label %14

14:                                               ; preds = %13, %12
  %15 = load i1, ptr %2, align 1
  ret i1 %15
}

; Function Attrs: inlinehint nounwind uwtable
define internal void @pmix_atomic_rmb() #2 {
  fence acquire
  ret void
}

; Function Attrs: nounwind uwtable
define void @pmix_iof_stdin_cb(i32 noundef %0, i16 noundef signext %1, ptr noundef %2) #0 {
  %4 = alloca i32, align 4
  %5 = alloca i16, align 2
  %6 = alloca ptr, align 8
  %7 = alloca i8, align 1
  %8 = alloca ptr, align 8
  %9 = alloca ptr, align 8
  store i32 %0, ptr %4, align 4, !tbaa !81
  store i16 %1, ptr %5, align 2, !tbaa !12
  store ptr %2, ptr %6, align 8, !tbaa !14
  call void @llvm.lifetime.start.p0(i64 1, ptr %7) #13
  call void @llvm.lifetime.start.p0(i64 8, ptr %8) #13
  %10 = load ptr, ptr %6, align 8, !tbaa !14
  store ptr %10, ptr %8, align 8, !tbaa !14
  call void @pmix_atomic_rmb()
  %11 = call zeroext i1 @pmix_iof_stdin_check(i32 noundef 0)
  %12 = zext i1 %11 to i8
  store i8 %12, ptr %7, align 1, !tbaa !138
  %13 = load i8, ptr %7, align 1, !tbaa !138, !range !24, !noundef !25
  %14 = trunc i8 %13 to i1
  br i1 %14, label %15, label %43

15:                                               ; preds = %3
  br label %16

16:                                               ; preds = %15
  %17 = load ptr, ptr %8, align 8, !tbaa !14
  %18 = getelementptr inbounds nuw %struct.pmix_iof_read_event_t, ptr %17, i32 0, i32 4
  store i8 1, ptr %18, align 4, !tbaa !172
  call void @pmix_atomic_wmb()
  br label %19

19:                                               ; preds = %16
  call void @llvm.lifetime.start.p0(i64 8, ptr %9) #13
  store ptr null, ptr %9, align 8, !tbaa !173
  %20 = load ptr, ptr %8, align 8, !tbaa !14
  %21 = getelementptr inbounds nuw %struct.pmix_iof_read_event_t, ptr %20, i32 0, i32 6
  %22 = load i8, ptr %21, align 8, !tbaa !171, !range !24, !noundef !25
  %23 = trunc i8 %22 to i1
  br i1 %23, label %24, label %27

24:                                               ; preds = %19
  %25 = load ptr, ptr %8, align 8, !tbaa !14
  %26 = getelementptr inbounds nuw %struct.pmix_iof_read_event_t, ptr %25, i32 0, i32 2
  store ptr %26, ptr %9, align 8, !tbaa !173
  br label %27

27:                                               ; preds = %24, %19
  %28 = load ptr, ptr %8, align 8, !tbaa !14
  %29 = getelementptr inbounds nuw %struct.pmix_iof_read_event_t, ptr %28, i32 0, i32 1
  %30 = load ptr, ptr %9, align 8, !tbaa !173
  %31 = call i32 @event_add(ptr noundef %29, ptr noundef %30)
  %32 = icmp ne i32 %31, 0
  br i1 %32, label %33, label %38

33:                                               ; preds = %27
  br label %34

34:                                               ; preds = %33
  %35 = call ptr @PMIx_Error_string(i32 noundef -27)
  call void (i32, ptr, ...) @pmix_output(i32 noundef 0, ptr noundef @.str.1, ptr noundef %35, ptr noundef @.str.2, i32 noundef 1837)
  br label %36

36:                                               ; preds = %34
  br label %37

37:                                               ; preds = %36
  br label %38

38:                                               ; preds = %37, %27
  call void @llvm.lifetime.end.p0(i64 8, ptr %9) #13
  br label %39

39:                                               ; preds = %38
  br label %40

40:                                               ; preds = %39
  br label %41

41:                                               ; preds = %40
  br label %42

42:                                               ; preds = %41
  br label %49

43:                                               ; preds = %3
  %44 = load ptr, ptr %8, align 8, !tbaa !14
  %45 = getelementptr inbounds nuw %struct.pmix_iof_read_event_t, ptr %44, i32 0, i32 1
  %46 = call i32 @event_del(ptr noundef %45)
  %47 = load ptr, ptr %8, align 8, !tbaa !14
  %48 = getelementptr inbounds nuw %struct.pmix_iof_read_event_t, ptr %47, i32 0, i32 4
  store i8 0, ptr %48, align 4, !tbaa !172
  call void @pmix_atomic_wmb()
  br label %49

49:                                               ; preds = %43, %42
  call void @llvm.lifetime.end.p0(i64 8, ptr %8) #13
  call void @llvm.lifetime.end.p0(i64 1, ptr %7) #13
  ret void
}