; Function Attrs: nounwind uwtable
define void @pmix_iof_stdin_cb(i32 %0, i16 signext %1, ptr noundef %2) #0 {
  fence acquire
  %4 = tail call i32 @isatty(i32 noundef 0) #18
  %.not.i = icmp eq i32 %4, 0
  br i1 %.not.i, label %8, label %5

5:                                                ; preds = %3
  %6 = tail call i32 @getpgrp() #18
  %7 = tail call i32 @tcgetpgrp(i32 noundef 0) #18
  %.not2.i = icmp eq i32 %6, %7
  br i1 %.not2.i, label %8, label %pmix_iof_stdin_check.exit

8:                                                ; preds = %3, %5
  %9 = getelementptr inbounds nuw i8, ptr %2, i64 268
  store i8 1, ptr %9, align 4, !tbaa !153
  fence release
  %10 = getelementptr inbounds nuw i8, ptr %2, i64 280
  %11 = load i8, ptr %10, align 8, !tbaa !152, !range !19, !noundef !20
  %12 = trunc nuw i8 %11 to i1
  %13 = getelementptr inbounds nuw i8, ptr %2, i64 248
  %spec.select = select i1 %12, ptr %13, ptr null
  %14 = getelementptr inbounds nuw i8, ptr %2, i64 120
  %15 = tail call i32 @event_add(ptr noundef nonnull %14, ptr noundef %spec.select) #18
  %.not = icmp eq i32 %15, 0
  br i1 %.not, label %21, label %16

16:                                               ; preds = %8
  %17 = tail call ptr @PMIx_Error_string(i32 noundef -27) #18
  tail call void (i32, ptr, ...) @pmix_output(i32 noundef 0, ptr noundef nonnull @.str.1, ptr noundef %17, ptr noundef nonnull @.str.2, i32 noundef 1837) #18
  br label %21

pmix_iof_stdin_check.exit:                        ; preds = %5
  %18 = getelementptr inbounds nuw i8, ptr %2, i64 120
  %19 = tail call i32 @event_del(ptr noundef nonnull %18) #18
  %20 = getelementptr inbounds nuw i8, ptr %2, i64 268
  store i8 0, ptr %20, align 4, !tbaa !153
  fence release
  br label %21

21:                                               ; preds = %8, %16, %pmix_iof_stdin_check.exit
  ret void
}